; Function Attrs: nounwind uwtable
define internal fastcc range(i32 0, 2) i32 @Cba_NtkIsSeq(ptr noundef captures(none) %0) unnamed_addr #0 {
  %2 = getelementptr inbounds nuw i8, ptr %0, i64 20
  %3 = load i8, ptr %2, align 4
  %4 = and i8 %3, 4
  %.not = icmp eq i8 %4, 0
  br i1 %.not, label %5, label %47

5:                                                ; preds = %1
  %6 = and i8 %3, 2
  %.not17 = icmp eq i8 %6, 0
  br i1 %.not17, label %.preheader, label %47

.preheader:                                       ; preds = %5
  %7 = getelementptr i8, ptr %0, i64 92
  %.val27 = load i32, ptr %7, align 4
  %8 = icmp sgt i32 %.val27, 1
  br i1 %8, label %.lr.ph, label %._crit_edge

.lr.ph:                                           ; preds = %.preheader
  %9 = getelementptr i8, ptr %0, i64 96
  %10 = getelementptr i8, ptr %0, i64 188
  %11 = getelementptr inbounds nuw i8, ptr %0, i64 184
  %12 = getelementptr i8, ptr %0, i64 192
  br label %13

13:                                               ; preds = %.lr.ph, %42
  %.val31 = phi i32 [ %.val27, %.lr.ph ], [ %.val, %42 ]
  %indvars.iv = phi i64 [ 1, %.lr.ph ], [ %indvars.iv.next, %42 ]
  %.val23 = load ptr, ptr %9, align 8
  %14 = getelementptr inbounds nuw i8, ptr %.val23, i64 %indvars.iv
  %15 = load i8, ptr %14, align 1
  %16 = add i8 %15, -90
  %17 = icmp ult i8 %16, -87
  br i1 %17, label %42, label %18

18:                                               ; preds = %13
  %.not26 = icmp eq i8 %15, 3
  br i1 %.not26, label %19, label %Cba_ObjIsSeq.exit

19:                                               ; preds = %18
  %.val5.i.i = load i32, ptr %10, align 4
  %20 = icmp slt i32 %.val5.i.i, 1
  br i1 %20, label %Cba_ObjNtk.exit, label %Cba_ObjNtkId.exit.i

Cba_ObjNtkId.exit.i:                              ; preds = %19
  %21 = trunc i64 %indvars.iv to i32
  %22 = add i32 %21, 1
  tail call fastcc void @Vec_IntFillExtra(ptr noundef nonnull %11, i32 noundef %22)
  %.val.i.i.i.i = load ptr, ptr %12, align 8
  %23 = getelementptr inbounds nuw i32, ptr %.val.i.i.i.i, i64 %indvars.iv
  %24 = load i32, ptr %23, align 4
  %.val.i = load ptr, ptr %0, align 8
  %25 = icmp sgt i32 %24, 0
  br i1 %25, label %Cba_ManNtkIsOk.exit.i.i.i, label %Cba_ObjNtk.exit

Cba_ManNtkIsOk.exit.i.i.i:                        ; preds = %Cba_ObjNtkId.exit.i
  %26 = getelementptr i8, ptr %.val.i, i64 1564
  %.val.i.i.i2.i = load i32, ptr %26, align 4
  %.not.i.i.i = icmp slt i32 %24, %.val.i.i.i2.i
  br i1 %.not.i.i.i, label %27, label %Cba_ObjNtk.exit

27:                                               ; preds = %Cba_ManNtkIsOk.exit.i.i.i
  %28 = getelementptr i8, ptr %.val.i, i64 1568
  %.val.i.i.i = load ptr, ptr %28, align 8
  %29 = zext nneg i32 %24 to i64
  %30 = getelementptr inbounds nuw ptr, ptr %.val.i.i.i, i64 %29
  %31 = load ptr, ptr %30, align 8
  br label %Cba_ObjNtk.exit

Cba_ObjNtk.exit:                                  ; preds = %19, %Cba_ObjNtkId.exit.i, %Cba_ManNtkIsOk.exit.i.i.i, %27
  %32 = phi ptr [ %31, %27 ], [ null, %Cba_ManNtkIsOk.exit.i.i.i ], [ null, %Cba_ObjNtkId.exit.i ], [ null, %19 ]
  %33 = tail call fastcc i32 @Cba_NtkIsSeq(ptr noundef %32)
  %.not21 = icmp eq i32 %33, 0
  br i1 %.not21, label %Cba_ObjNtk.exit._crit_edge, label %34

Cba_ObjNtk.exit._crit_edge:                       ; preds = %Cba_ObjNtk.exit
  %.val.pre = load i32, ptr %7, align 4
  br label %42

34:                                               ; preds = %Cba_ObjNtk.exit
  %35 = load i8, ptr %2, align 4
  %36 = or i8 %35, 4
  br label %.sink.split

Cba_ObjIsSeq.exit:                                ; preds = %18
  %37 = add nsw i8 %15, -88
  %38 = icmp ult i8 %37, -12
  br i1 %38, label %42, label %39

39:                                               ; preds = %Cba_ObjIsSeq.exit
  %40 = load i8, ptr %2, align 4
  %41 = or i8 %40, 4
  br label %.sink.split

42:                                               ; preds = %Cba_ObjNtk.exit._crit_edge, %13, %Cba_ObjIsSeq.exit
  %.val = phi i32 [ %.val.pre, %Cba_ObjNtk.exit._crit_edge ], [ %.val31, %13 ], [ %.val31, %Cba_ObjIsSeq.exit ]
  %indvars.iv.next = add nuw nsw i64 %indvars.iv, 1
  %43 = sext i32 %.val to i64
  %44 = icmp slt i64 %indvars.iv.next, %43
  br i1 %44, label %13, label %._crit_edge.loopexit, !llvm.loop !90

._crit_edge.loopexit:                             ; preds = %42
  %.pre = load i8, ptr %2, align 4
  br label %._crit_edge

._crit_edge:                                      ; preds = %._crit_edge.loopexit, %.preheader
  %45 = phi i8 [ %.pre, %._crit_edge.loopexit ], [ %3, %.preheader ]
  %46 = or i8 %45, 2
  br label %.sink.split

.sink.split:                                      ; preds = %34, %39, %._crit_edge
  %.sink = phi i8 [ %46, %._crit_edge ], [ %41, %39 ], [ %36, %34 ]
  %.016.ph = phi i32 [ 0, %._crit_edge ], [ 1, %39 ], [ 1, %34 ]
  store i8 %.sink, ptr %2, align 4
  br label %47

47:                                               ; preds = %.sink.split, %5, %1
  %.016 = phi i32 [ 1, %1 ], [ 0, %5 ], [ %.016.ph, %.sink.split ]
  ret i32 %.016
}